target datalayout = "e-m:e-p270:32:32-p271:32:32-p272:64:64-i64:64-i128:128-f80:128-n8:16:32:64-S128"
target triple = "x86_64-pc-linux-gnu"

%struct.verify_options_st = type { i32, i32, i32, i32 }

@verify_args = global %struct.verify_options_st { i32 -1, i32 0, i32 0, i32 0 }, align 4
@bio_err = external global ptr, align 8
@.str = private unnamed_addr constant [10 x i8] c"depth=%d \00", align 1
@.str.1 = private unnamed_addr constant [2 x i8] c"\0A\00", align 1
@.str.2 = private unnamed_addr constant [11 x i8] c"<no cert>\0A\00", align 1
@.str.3 = private unnamed_addr constant [24 x i8] c"verify error:num=%d:%s\0A\00", align 1
@.str.4 = private unnamed_addr constant [9 x i8] c"issuer= \00", align 1
@.str.5 = private unnamed_addr constant [11 x i8] c"notBefore=\00", align 1
@.str.6 = private unnamed_addr constant [10 x i8] c"notAfter=\00", align 1
@.str.7 = private unnamed_addr constant [18 x i8] c"verify return:%d\0A\00", align 1

; Function Attrs: nounwind uwtable
define i32 @verify_callback(i32 noundef %0, ptr noundef %1) #0 {
  %3 = alloca i32, align 4
  %4 = alloca ptr, align 8
  %5 = alloca ptr, align 8
  %6 = alloca i32, align 4
  %7 = alloca i32, align 4
  store i32 %0, ptr %3, align 4, !tbaa !3
  store ptr %1, ptr %4, align 8, !tbaa !7
  call void @llvm.lifetime.start.p0(i64 8, ptr %5) #10
  call void @llvm.lifetime.start.p0(i64 4, ptr %6) #10
  call void @llvm.lifetime.start.p0(i64 4, ptr %7) #10
  %8 = load ptr, ptr %4, align 8, !tbaa !7
  %9 = call ptr @X509_STORE_CTX_get_current_cert(ptr noundef %8)
  store ptr %9, ptr %5, align 8, !tbaa !10
  %10 = load ptr, ptr %4, align 8, !tbaa !7
  %11 = call i32 @X509_STORE_CTX_get_error(ptr noundef %10)
  store i32 %11, ptr %6, align 4, !tbaa !3
  %12 = load ptr, ptr %4, align 8, !tbaa !7
  %13 = call i32 @X509_STORE_CTX_get_error_depth(ptr noundef %12)
  store i32 %13, ptr %7, align 4, !tbaa !3
  %14 = load i32, ptr getelementptr inbounds nuw (%struct.verify_options_st, ptr @verify_args, i32 0, i32 1), align 4, !tbaa !12
  %15 = icmp ne i32 %14, 0
  br i1 %15, label %16, label %19

16:                                               ; preds = %2
  %17 = load i32, ptr %3, align 4, !tbaa !3
  %18 = icmp ne i32 %17, 0
  br i1 %18, label %37, label %19

19:                                               ; preds = %16, %2
  %20 = load ptr, ptr @bio_err, align 8, !tbaa !14
  %21 = load i32, ptr %7, align 4, !tbaa !3
  %22 = call i32 (ptr, ptr, ...) @BIO_printf(ptr noundef %20, ptr noundef @.str, i32 noundef %21)
  %23 = load ptr, ptr %5, align 8, !tbaa !10
  %24 = icmp ne ptr %23, null
  br i1 %24, label %25, label %33

25:                                               ; preds = %19
  %26 = load ptr, ptr @bio_err, align 8, !tbaa !14
  %27 = load ptr, ptr %5, align 8, !tbaa !10
  %28 = call ptr @X509_get_subject_name(ptr noundef %27)
  %29 = call i64 @get_nameopt()
  %30 = call i32 @X509_NAME_print_ex(ptr noundef %26, ptr noundef %28, i32 noundef 0, i64 noundef %29)
  %31 = load ptr, ptr @bio_err, align 8, !tbaa !14
  %32 = call i32 @BIO_puts(ptr noundef %31, ptr noundef @.str.1)
  br label %36

33:                                               ; preds = %19
  %34 = load ptr, ptr @bio_err, align 8, !tbaa !14
  %35 = call i32 @BIO_puts(ptr noundef %34, ptr noundef @.str.2)
  br label %36

36:                                               ; preds = %33, %25
  br label %37

37:                                               ; preds = %36, %16
  %38 = load i32, ptr %3, align 4, !tbaa !3
  %39 = icmp ne i32 %38, 0
  br i1 %39, label %61, label %40

40:                                               ; preds = %37
  %41 = load ptr, ptr @bio_err, align 8, !tbaa !14
  %42 = load i32, ptr %6, align 4, !tbaa !3
  %43 = load i32, ptr %6, align 4, !tbaa !3
  %44 = sext i32 %43 to i64
  %45 = call ptr @X509_verify_cert_error_string(i64 noundef %44)
  %46 = call i32 (ptr, ptr, ...) @BIO_printf(ptr noundef %41, ptr noundef @.str.3, i32 noundef %42, ptr noundef %45)
  %47 = load i32, ptr @verify_args, align 4, !tbaa !16
  %48 = icmp slt i32 %47, 0
  br i1 %48, label %53, label %49

49:                                               ; preds = %40
  %50 = load i32, ptr @verify_args, align 4, !tbaa !16
  %51 = load i32, ptr %7, align 4, !tbaa !3
  %52 = icmp sge i32 %50, %51
  br i1 %52, label %53, label %59

53:                                               ; preds = %49, %40
  %54 = load i32, ptr getelementptr inbounds nuw (%struct.verify_options_st, ptr @verify_args, i32 0, i32 3), align 4, !tbaa !17
  %55 = icmp ne i32 %54, 0
  br i1 %55, label %57, label %56

56:                                               ; preds = %53
  store i32 1, ptr %3, align 4, !tbaa !3
  br label %57

57:                                               ; preds = %56, %53
  %58 = load i32, ptr %6, align 4, !tbaa !3
  store i32 %58, ptr getelementptr inbounds nuw (%struct.verify_options_st, ptr @verify_args, i32 0, i32 2), align 4, !tbaa !18
  br label %60

59:                                               ; preds = %49
  store i32 0, ptr %3, align 4, !tbaa !3
  store i32 22, ptr getelementptr inbounds nuw (%struct.verify_options_st, ptr @verify_args, i32 0, i32 2), align 4, !tbaa !18
  br label %60

60:                                               ; preds = %59, %57
  br label %61

61:                                               ; preds = %60, %37
  %62 = load i32, ptr %6, align 4, !tbaa !3
  switch i32 %62, label %109 [
    i32 2, label %63
    i32 9, label %77
    i32 13, label %77
    i32 10, label %90
    i32 14, label %90
    i32 43, label %103
  ]

63:                                               ; preds = %61
  %64 = load ptr, ptr %5, align 8, !tbaa !10
  %65 = icmp ne ptr %64, null
  br i1 %65, label %66, label %76

66:                                               ; preds = %63
  %67 = load ptr, ptr @bio_err, align 8, !tbaa !14
  %68 = call i32 @BIO_puts(ptr noundef %67, ptr noundef @.str.4)
  %69 = load ptr, ptr @bio_err, align 8, !tbaa !14
  %70 = load ptr, ptr %5, align 8, !tbaa !10
  %71 = call ptr @X509_get_issuer_name(ptr noundef %70)
  %72 = call i64 @get_nameopt()
  %73 = call i32 @X509_NAME_print_ex(ptr noundef %69, ptr noundef %71, i32 noundef 0, i64 noundef %72)
  %74 = load ptr, ptr @bio_err, align 8, !tbaa !14
  %75 = call i32 @BIO_puts(ptr noundef %74, ptr noundef @.str.1)
  br label %76

76:                                               ; preds = %66, %63
  br label %109

77:                                               ; preds = %61, %61
  %78 = load ptr, ptr %5, align 8, !tbaa !10
  %79 = icmp ne ptr %78, null
  br i1 %79, label %80, label %89

80:                                               ; preds = %77
  %81 = load ptr, ptr @bio_err, align 8, !tbaa !14
  %82 = call i32 (ptr, ptr, ...) @BIO_printf(ptr noundef %81, ptr noundef @.str.5)
  %83 = load ptr, ptr @bio_err, align 8, !tbaa !14
  %84 = load ptr, ptr %5, align 8, !tbaa !10
  %85 = call ptr @X509_get0_notBefore(ptr noundef %84)
  %86 = call i32 @ASN1_TIME_print(ptr noundef %83, ptr noundef %85)
  %87 = load ptr, ptr @bio_err, align 8, !tbaa !14
  %88 = call i32 (ptr, ptr, ...) @BIO_printf(ptr noundef %87, ptr noundef @.str.1)
  br label %89

89:                                               ; preds = %80, %77
  br label %109

90:                                               ; preds = %61, %61
  %91 = load ptr, ptr %5, align 8, !tbaa !10
  %92 = icmp ne ptr %91, null
  br i1 %92, label %93, label %102

93:                                               ; preds = %90
  %94 = load ptr, ptr @bio_err, align 8, !tbaa !14
  %95 = call i32 (ptr, ptr, ...) @BIO_printf(ptr noundef %94, ptr noundef @.str.6)
  %96 = load ptr, ptr @bio_err, align 8, !tbaa !14
  %97 = load ptr, ptr %5, align 8, !tbaa !10
  %98 = call ptr @X509_get0_notAfter(ptr noundef %97)
  %99 = call i32 @ASN1_TIME_print(ptr noundef %96, ptr noundef %98)
  %100 = load ptr, ptr @bio_err, align 8, !tbaa !14
  %101 = call i32 (ptr, ptr, ...) @BIO_printf(ptr noundef %100, ptr noundef @.str.1)
  br label %102

102:                                              ; preds = %93, %90
  br label %109

103:                                              ; preds = %61
  %104 = load i32, ptr getelementptr inbounds nuw (%struct.verify_options_st, ptr @verify_args, i32 0, i32 1), align 4, !tbaa !12
  %105 = icmp ne i32 %104, 0
  br i1 %105, label %108, label %106

106:                                              ; preds = %103
  %107 = load ptr, ptr %4, align 8, !tbaa !7
  call void @policies_print(ptr noundef %107)
  br label %108

108:                                              ; preds = %106, %103
  br label %109

109:                                              ; preds = %61, %108, %102, %89, %76
  %110 = load i32, ptr %6, align 4, !tbaa !3
  %111 = icmp eq i32 %110, 0
  br i1 %111, label %112, label %120

112:                                              ; preds = %109
  %113 = load i32, ptr %3, align 4, !tbaa !3
  %114 = icmp eq i32 %113, 2
  br i1 %114, label %115, label %120

115:                                              ; preds = %112
  %116 = load i32, ptr getelementptr inbounds nuw (%struct.verify_options_st, ptr @verify_args, i32 0, i32 1), align 4, !tbaa !12
  %117 = icmp ne i32 %116, 0
  br i1 %117, label %120, label %118

118:                                              ; preds = %115
  %119 = load ptr, ptr %4, align 8, !tbaa !7
  call void @policies_print(ptr noundef %119)
  br label %120

120:                                              ; preds = %118, %115, %112, %109
  %121 = load i32, ptr %3, align 4, !tbaa !3
  %122 = icmp ne i32 %121, 0
  br i1 %122, label %123, label %130

123:                                              ; preds = %120
  %124 = load i32, ptr getelementptr inbounds nuw (%struct.verify_options_st, ptr @verify_args, i32 0, i32 1), align 4, !tbaa !12
  %125 = icmp ne i32 %124, 0
  br i1 %125, label %130, label %126

126:                                              ; preds = %123
  %127 = load ptr, ptr @bio_err, align 8, !tbaa !14
  %128 = load i32, ptr %3, align 4, !tbaa !3
  %129 = call i32 (ptr, ptr, ...) @BIO_printf(ptr noundef %127, ptr noundef @.str.7, i32 noundef %128)
  br label %130

130:                                              ; preds = %126, %123, %120
  %131 = load i32, ptr %3, align 4, !tbaa !3
  call void @llvm.lifetime.end.p0(i64 4, ptr %7) #10
  call void @llvm.lifetime.end.p0(i64 4, ptr %6) #10
  call void @llvm.lifetime.end.p0(i64 8, ptr %5) #10
  ret i32 %131
}