; Function Attrs: nounwind uwtable
define i32 @verify_callback(i32 noundef %0, ptr noundef %1) local_unnamed_addr #0 {
  %3 = tail call ptr @X509_STORE_CTX_get_current_cert(ptr noundef %1) #6
  %4 = tail call i32 @X509_STORE_CTX_get_error(ptr noundef %1) #6
  %5 = tail call i32 @X509_STORE_CTX_get_error_depth(ptr noundef %1) #6
  %6 = load i32, ptr getelementptr inbounds nuw (i8, ptr @verify_args, i64 4), align 4, !tbaa !3
  %7 = icmp ne i32 %6, 0
  %8 = icmp ne i32 %0, 0
  %or.cond = and i1 %8, %7
  br i1 %or.cond, label %.thread, label %9

9:                                                ; preds = %2
  %10 = load ptr, ptr @bio_err, align 8, !tbaa !8
  %11 = tail call i32 (ptr, ptr, ...) @BIO_printf(ptr noundef %10, ptr noundef nonnull @.str, i32 noundef %5) #6
  %.not = icmp eq ptr %3, null
  %12 = load ptr, ptr @bio_err, align 8, !tbaa !8
  br i1 %.not, label %19, label %13

13:                                               ; preds = %9
  %14 = tail call ptr @X509_get_subject_name(ptr noundef nonnull %3) #6
  %15 = tail call i64 @get_nameopt() #6
  %16 = tail call i32 @X509_NAME_print_ex(ptr noundef %12, ptr noundef %14, i32 noundef 0, i64 noundef %15) #6
  %17 = load ptr, ptr @bio_err, align 8, !tbaa !8
  %18 = tail call i32 @BIO_puts(ptr noundef %17, ptr noundef nonnull @.str.1) #6
  br label %21

19:                                               ; preds = %9
  %20 = tail call i32 @BIO_puts(ptr noundef %12, ptr noundef nonnull @.str.2) #6
  br label %21

21:                                               ; preds = %13, %19
  br i1 %8, label %.thread, label %.thread.sink.split

.thread.sink.split:                               ; preds = %21
  %22 = load ptr, ptr @bio_err, align 8, !tbaa !8
  %23 = sext i32 %4 to i64
  %24 = tail call ptr @X509_verify_cert_error_string(i64 noundef %23) #6
  %25 = tail call i32 (ptr, ptr, ...) @BIO_printf(ptr noundef %22, ptr noundef nonnull @.str.3, i32 noundef %4, ptr noundef %24) #6
  %26 = load i32, ptr @verify_args, align 4, !tbaa !11
  %27 = icmp slt i32 %26, 0
  %.not37 = icmp sge i32 %26, %5
  %or.cond46.not = select i1 %27, i1 true, i1 %.not37
  %28 = load i32, ptr getelementptr inbounds nuw (i8, ptr @verify_args, i64 12), align 4
  %.not38 = icmp eq i32 %28, 0
  %.sink = select i1 %or.cond46.not, i32 %4, i32 22
  %narrow = select i1 %or.cond46.not, i1 %.not38, i1 false
  %.0.ph = zext i1 %narrow to i32
  store i32 %.sink, ptr getelementptr inbounds nuw (i8, ptr @verify_args, i64 8), align 4, !tbaa !12
  br label %.thread

.thread:                                          ; preds = %.thread.sink.split, %2, %21
  %.0 = phi i32 [ %0, %21 ], [ %0, %2 ], [ %.0.ph, %.thread.sink.split ]
  switch i32 %4, label %60 [
    i32 2, label %29
    i32 9, label %39
    i32 13, label %39
    i32 10, label %48
    i32 14, label %48
    i32 43, label %57
  ]

29:                                               ; preds = %.thread
  %.not42 = icmp eq ptr %3, null
  br i1 %.not42, label %.thread47, label %30

30:                                               ; preds = %29
  %31 = load ptr, ptr @bio_err, align 8, !tbaa !8
  %32 = tail call i32 @BIO_puts(ptr noundef %31, ptr noundef nonnull @.str.4) #6
  %33 = load ptr, ptr @bio_err, align 8, !tbaa !8
  %34 = tail call ptr @X509_get_issuer_name(ptr noundef nonnull %3) #6
  %35 = tail call i64 @get_nameopt() #6
  %36 = tail call i32 @X509_NAME_print_ex(ptr noundef %33, ptr noundef %34, i32 noundef 0, i64 noundef %35) #6
  %37 = load ptr, ptr @bio_err, align 8, !tbaa !8
  %38 = tail call i32 @BIO_puts(ptr noundef %37, ptr noundef nonnull @.str.1) #6
  br label %.thread47

39:                                               ; preds = %.thread, %.thread
  %.not41 = icmp eq ptr %3, null
  br i1 %.not41, label %.thread47, label %40

40:                                               ; preds = %39
  %41 = load ptr, ptr @bio_err, align 8, !tbaa !8
  %42 = tail call i32 (ptr, ptr, ...) @BIO_printf(ptr noundef %41, ptr noundef nonnull @.str.5) #6
  %43 = load ptr, ptr @bio_err, align 8, !tbaa !8
  %44 = tail call ptr @X509_get0_notBefore(ptr noundef nonnull %3) #6
  %45 = tail call i32 @ASN1_TIME_print(ptr noundef %43, ptr noundef %44) #6
  %46 = load ptr, ptr @bio_err, align 8, !tbaa !8
  %47 = tail call i32 (ptr, ptr, ...) @BIO_printf(ptr noundef %46, ptr noundef nonnull @.str.1) #6
  br label %.thread47

48:                                               ; preds = %.thread, %.thread
  %.not40 = icmp eq ptr %3, null
  br i1 %.not40, label %.thread47, label %49

49:                                               ; preds = %48
  %50 = load ptr, ptr @bio_err, align 8, !tbaa !8
  %51 = tail call i32 (ptr, ptr, ...) @BIO_printf(ptr noundef %50, ptr noundef nonnull @.str.6) #6
  %52 = load ptr, ptr @bio_err, align 8, !tbaa !8
  %53 = tail call ptr @X509_get0_notAfter(ptr noundef nonnull %3) #6
  %54 = tail call i32 @ASN1_TIME_print(ptr noundef %52, ptr noundef %53) #6
  %55 = load ptr, ptr @bio_err, align 8, !tbaa !8
  %56 = tail call i32 (ptr, ptr, ...) @BIO_printf(ptr noundef %55, ptr noundef nonnull @.str.1) #6
  br label %.thread47

57:                                               ; preds = %.thread
  %58 = load i32, ptr getelementptr inbounds nuw (i8, ptr @verify_args, i64 4), align 4, !tbaa !3
  %.not39 = icmp eq i32 %58, 0
  br i1 %.not39, label %59, label %.thread47

59:                                               ; preds = %57
  tail call void @policies_print(ptr noundef %1) #6
  br label %.thread47

60:                                               ; preds = %.thread
  %61 = icmp ne i32 %4, 0
  %62 = icmp ne i32 %.0, 2
  %or.cond3.not45 = or i1 %61, %62
  %63 = load i32, ptr getelementptr inbounds nuw (i8, ptr @verify_args, i64 4), align 4
  %64 = icmp ne i32 %63, 0
  %or.cond5 = select i1 %or.cond3.not45, i1 true, i1 %64
  br i1 %or.cond5, label %.thread47, label %65

65:                                               ; preds = %60
  tail call void @policies_print(ptr noundef %1) #6
  br label %.thread47

.thread47:                                        ; preds = %30, %29, %40, %39, %49, %48, %59, %57, %65, %60
  %66 = icmp eq i32 %.0, 0
  %67 = load i32, ptr getelementptr inbounds nuw (i8, ptr @verify_args, i64 4), align 4
  %68 = icmp ne i32 %67, 0
  %or.cond7 = select i1 %66, i1 true, i1 %68
  br i1 %or.cond7, label %72, label %69

69:                                               ; preds = %.thread47
  %70 = load ptr, ptr @bio_err, align 8, !tbaa !8
  %71 = tail call i32 (ptr, ptr, ...) @BIO_printf(ptr noundef %70, ptr noundef nonnull @.str.7, i32 noundef %.0) #6
  br label %72

72:                                               ; preds = %69, %.thread47
  ret i32 %.0
}